; Function Attrs: mustprogress uwtable
define noundef range(i32 -2, 1) i32 @_ZN12duckdb_miniz13mz_deflateEndEPNS_11mz_stream_sE(ptr noundef captures(address_is_null) %0) local_unnamed_addr #8 {
  %.not = icmp eq ptr %0, null
  br i1 %.not, label %10, label %2

2:                                                ; preds = %1
  %3 = getelementptr inbounds nuw i8, ptr %0, i64 56
  %4 = load ptr, ptr %3, align 8, !tbaa !26
  %.not8 = icmp eq ptr %4, null
  br i1 %.not8, label %10, label %5

5:                                                ; preds = %2
  %6 = getelementptr inbounds nuw i8, ptr %0, i64 72
  %7 = load ptr, ptr %6, align 8, !tbaa !24
  %8 = getelementptr inbounds nuw i8, ptr %0, i64 80
  %9 = load ptr, ptr %8, align 8, !tbaa !25
  tail call void %7(ptr noundef %9, ptr noundef nonnull %4)
  store ptr null, ptr %3, align 8, !tbaa !26
  br label %10

10:                                               ; preds = %2, %5, %1
  %.0 = phi i32 [ -2, %1 ], [ 0, %5 ], [ 0, %2 ]
  ret i32 %.0
}